; Function Attrs: nofree norecurse nosync nounwind memory(argmem: readwrite) uwtable
define range(i32 -173, 1) i32 @wc_Poly1305Update(ptr noundef captures(address_is_null) %0, ptr noundef readonly captures(address_is_null) %1, i32 noundef %2) local_unnamed_addr #2 {
  %4 = icmp eq ptr %0, null
  br i1 %4, label %.critedge, label %5

5:                                                ; preds = %3
  %6 = icmp eq ptr %1, null
  %7 = icmp ne i32 %2, 0
  %or.cond = and i1 %6, %7
  br i1 %or.cond, label %.critedge, label %8

8:                                                ; preds = %5
  %9 = icmp eq i32 %2, 0
  br i1 %9, label %.critedge, label %10

10:                                               ; preds = %8
  %11 = getelementptr inbounds nuw i8, ptr %0, i64 64
  %12 = load i64, ptr %11, align 8, !tbaa !7
  %.not = icmp eq i64 %12, 0
  br i1 %.not, label %30, label %13

13:                                               ; preds = %10
  %14 = sub i64 16, %12
  %15 = zext i32 %2 to i64
  %spec.select = tail call i64 @llvm.umin.i64(i64 %14, i64 %15)
  %.not74 = icmp eq i64 %12, 16
  br i1 %.not74, label %._crit_edge, label %.lr.ph

.lr.ph:                                           ; preds = %13
  %16 = getelementptr inbounds nuw i8, ptr %0, i64 72
  %umax = tail call i64 @llvm.umax.i64(i64 %spec.select, i64 1)
  br label %17

17:                                               ; preds = %.lr.ph, %17
  %.05972 = phi i64 [ 0, %.lr.ph ], [ %22, %17 ]
  %18 = getelementptr inbounds nuw i8, ptr %1, i64 %.05972
  %19 = load i8, ptr %18, align 1, !tbaa !10
  %20 = add i64 %.05972, %12
  %21 = getelementptr inbounds nuw [16 x i8], ptr %16, i64 0, i64 %20
  store i8 %19, ptr %21, align 1, !tbaa !10
  %22 = add nuw nsw i64 %.05972, 1
  %exitcond.not = icmp eq i64 %22, %umax
  br i1 %exitcond.not, label %._crit_edge, label %17, !llvm.loop !11

._crit_edge:                                      ; preds = %17, %13
  %23 = add i64 %spec.select, %12
  store i64 %23, ptr %11, align 8, !tbaa !7
  %24 = icmp ugt i64 %23, 15
  br i1 %24, label %25, label %.critedge

25:                                               ; preds = %._crit_edge
  %26 = getelementptr inbounds nuw i8, ptr %1, i64 %spec.select
  %27 = trunc nuw i64 %spec.select to i32
  %28 = sub i32 %2, %27
  %29 = getelementptr inbounds nuw i8, ptr %0, i64 72
  tail call fastcc void @poly1305_blocks(ptr noundef nonnull %0, ptr noundef nonnull readonly %29, i64 noundef 16)
  store i64 0, ptr %11, align 8, !tbaa !7
  br label %30

30:                                               ; preds = %25, %10
  %.061 = phi i32 [ %28, %25 ], [ %2, %10 ]
  %.053 = phi ptr [ %26, %25 ], [ %1, %10 ]
  %31 = icmp ugt i32 %.061, 15
  br i1 %31, label %32, label %37

32:                                               ; preds = %30
  %33 = and i32 %.061, -16
  %34 = zext i32 %33 to i64
  tail call fastcc void @poly1305_blocks(ptr noundef %0, ptr noundef %.053, i64 noundef %34)
  %35 = and i32 %.061, 15
  %36 = getelementptr inbounds nuw i8, ptr %.053, i64 %34
  br label %37

37:                                               ; preds = %32, %30
  %.162 = phi i32 [ %35, %32 ], [ %.061, %30 ]
  %.154 = phi ptr [ %36, %32 ], [ %.053, %30 ]
  %.not71 = icmp eq i32 %.162, 0
  br i1 %.not71, label %.critedge, label %.preheader

.preheader:                                       ; preds = %37
  %38 = zext nneg i32 %.162 to i64
  %39 = getelementptr inbounds nuw i8, ptr %0, i64 72
  %40 = load i64, ptr %11, align 8, !tbaa !7
  br label %41

41:                                               ; preds = %.preheader, %41
  %.16073 = phi i64 [ 0, %.preheader ], [ %46, %41 ]
  %42 = getelementptr inbounds nuw i8, ptr %.154, i64 %.16073
  %43 = load i8, ptr %42, align 1, !tbaa !10
  %44 = add i64 %40, %.16073
  %45 = getelementptr inbounds nuw [16 x i8], ptr %39, i64 0, i64 %44
  store i8 %43, ptr %45, align 1, !tbaa !10
  %46 = add nuw nsw i64 %.16073, 1
  %exitcond75.not = icmp eq i64 %46, %38
  br i1 %exitcond75.not, label %47, label %41, !llvm.loop !13

47:                                               ; preds = %41
  %48 = add i64 %40, %38
  store i64 %48, ptr %11, align 8, !tbaa !7
  br label %.critedge

.critedge:                                        ; preds = %._crit_edge, %37, %47, %8, %3, %5
  %.0 = phi i32 [ -173, %5 ], [ -173, %3 ], [ 0, %8 ], [ 0, %47 ], [ 0, %37 ], [ 0, %._crit_edge ]
  ret i32 %.0
}